target datalayout = "e-m:e-p270:32:32-p271:32:32-p272:64:64-i64:64-i128:128-f80:128-n8:16:32:64-S128"
target triple = "x86_64-pc-linux-gnu"

%struct.kwsysProcessInstances_s = type { i32, i32, ptr }
%struct.sigaction = type { %union.anon, %struct.__sigset_t, i32, ptr }
%union.anon = type { ptr }
%struct.__sigset_t = type { [16 x i64] }
%struct.cmsysProcess_s = type { ptr, i32, [3 x i32], [3 x i32], i32, [1024 x i8], ptr, i32, double, ptr, i32, i32, i32, i32, i32, %struct.kwsysProcessTime_s, %struct.kwsysProcessTime_s, i32, i32, %struct.fd_set, i32, i32, i32, [1025 x i8], ptr, ptr, ptr, ptr, ptr, i32, i32, i32, [2 x i32], [2 x i32], [2 x i32], i32, ptr }
%struct.kwsysProcessTime_s = type { i64, i64 }
%struct.fd_set = type { [16 x i64] }

@kwsysProcesses = internal global %struct.kwsysProcessInstances_s zeroinitializer, align 8

; Function Attrs: nounwind uwtable
define internal void @kwsysProcessesSignalHandler(i32 noundef %0, ptr noundef %1, ptr noundef %2) #0 {
  %4 = alloca i32, align 4
  %5 = alloca ptr, align 8
  %6 = alloca ptr, align 8
  %7 = alloca i32, align 4
  %8 = alloca i32, align 4
  %9 = alloca i32, align 4
  %10 = alloca i32, align 4
  %11 = alloca i8, align 1
  %12 = alloca ptr, align 8
  %13 = alloca i64, align 8
  %14 = alloca ptr, align 8
  %15 = alloca %struct.sigaction, align 8
  %16 = alloca %struct.__sigset_t, align 8
  store i32 %0, ptr %4, align 4, !tbaa !20
  store ptr %1, ptr %5, align 8, !tbaa !84
  store ptr %2, ptr %6, align 8, !tbaa !84
  call void @llvm.lifetime.start.p0(i64 4, ptr %7) #11
  call void @llvm.lifetime.start.p0(i64 4, ptr %8) #11
  call void @llvm.lifetime.start.p0(i64 4, ptr %9) #11
  call void @llvm.lifetime.start.p0(i64 4, ptr %10) #11
  %17 = call ptr @__errno_location() #14
  %18 = load i32, ptr %17, align 4, !tbaa !20
  store i32 %18, ptr %10, align 4, !tbaa !20
  %19 = load i32, ptr %4, align 4, !tbaa !20
  switch i32 %19, label %142 [
    i32 17, label %20
    i32 2, label %44
    i32 15, label %44
  ]

20:                                               ; preds = %3
  store i32 0, ptr %7, align 4, !tbaa !20
  br label %21

21:                                               ; preds = %40, %20
  %22 = load i32, ptr %7, align 4, !tbaa !20
  %23 = load i32, ptr @kwsysProcesses, align 8, !tbaa !98
  %24 = icmp slt i32 %22, %23
  br i1 %24, label %25, label %43

25:                                               ; preds = %21
  call void @llvm.lifetime.start.p0(i64 1, ptr %11) #11
  store i8 1, ptr %11, align 1, !tbaa !86
  call void @llvm.lifetime.start.p0(i64 8, ptr %12) #11
  %26 = load ptr, ptr getelementptr inbounds nuw (%struct.kwsysProcessInstances_s, ptr @kwsysProcesses, i32 0, i32 2), align 8, !tbaa !101
  %27 = load i32, ptr %7, align 4, !tbaa !20
  %28 = sext i32 %27 to i64
  %29 = getelementptr inbounds ptr, ptr %26, i64 %28
  %30 = load ptr, ptr %29, align 8, !tbaa !4
  store ptr %30, ptr %12, align 8, !tbaa !4
  call void @llvm.lifetime.start.p0(i64 8, ptr %13) #11
  %31 = load ptr, ptr %12, align 8, !tbaa !4
  %32 = getelementptr inbounds nuw %struct.cmsysProcess_s, ptr %31, i32 0, i32 2
  %33 = getelementptr inbounds [3 x i32], ptr %32, i64 0, i64 2
  %34 = load i32, ptr %33, align 4, !tbaa !20
  %35 = call i64 @read(i32 noundef %34, ptr noundef %11, i64 noundef 1)
  store i64 %35, ptr %13, align 8, !tbaa !49
  %36 = load ptr, ptr %12, align 8, !tbaa !4
  %37 = getelementptr inbounds nuw %struct.cmsysProcess_s, ptr %36, i32 0, i32 4
  %38 = load i32, ptr %37, align 4, !tbaa !80
  %39 = call i64 @write(i32 noundef %38, ptr noundef %11, i64 noundef 1)
  store i64 %39, ptr %13, align 8, !tbaa !49
  call void @llvm.lifetime.end.p0(i64 8, ptr %13) #11
  call void @llvm.lifetime.end.p0(i64 8, ptr %12) #11
  call void @llvm.lifetime.end.p0(i64 1, ptr %11) #11
  br label %40

40:                                               ; preds = %25
  %41 = load i32, ptr %7, align 4, !tbaa !20
  %42 = add nsw i32 %41, 1
  store i32 %42, ptr %7, align 4, !tbaa !20
  br label %21, !llvm.loop !164

43:                                               ; preds = %21
  br label %142

44:                                               ; preds = %3, %3
  store i32 0, ptr %7, align 4, !tbaa !20
  br label %45

45:                                               ; preds = %106, %44
  %46 = load i32, ptr %7, align 4, !tbaa !20
  %47 = load i32, ptr @kwsysProcesses, align 8, !tbaa !98
  %48 = icmp slt i32 %46, %47
  br i1 %48, label %49, label %109

49:                                               ; preds = %45
  call void @llvm.lifetime.start.p0(i64 8, ptr %14) #11
  %50 = load ptr, ptr getelementptr inbounds nuw (%struct.kwsysProcessInstances_s, ptr @kwsysProcesses, i32 0, i32 2), align 8, !tbaa !101
  %51 = load i32, ptr %7, align 4, !tbaa !20
  %52 = sext i32 %51 to i64
  %53 = getelementptr inbounds ptr, ptr %50, i64 %52
  %54 = load ptr, ptr %53, align 8, !tbaa !4
  store ptr %54, ptr %14, align 8, !tbaa !4
  %55 = load ptr, ptr %14, align 8, !tbaa !4
  %56 = getelementptr inbounds nuw %struct.cmsysProcess_s, ptr %55, i32 0, i32 14
  %57 = load volatile i32, ptr %56, align 8, !tbaa !61
  %58 = icmp ne i32 %57, 0
  br i1 %58, label %59, label %105

59:                                               ; preds = %49
  %60 = load ptr, ptr %14, align 8, !tbaa !4
  %61 = getelementptr inbounds nuw %struct.cmsysProcess_s, ptr %60, i32 0, i32 22
  %62 = load volatile i32, ptr %61, align 8, !tbaa !26
  %63 = icmp ne i32 %62, 0
  br i1 %63, label %105, label %64

64:                                               ; preds = %59
  %65 = load ptr, ptr %14, align 8, !tbaa !4
  %66 = getelementptr inbounds nuw %struct.cmsysProcess_s, ptr %65, i32 0, i32 21
  %67 = load volatile i32, ptr %66, align 4, !tbaa !21
  %68 = icmp ne i32 %67, 1
  br i1 %68, label %69, label %105

69:                                               ; preds = %64
  %70 = load ptr, ptr %14, align 8, !tbaa !4
  %71 = getelementptr inbounds nuw %struct.cmsysProcess_s, ptr %70, i32 0, i32 6
  %72 = load volatile ptr, ptr %71, align 8, !tbaa !87
  %73 = icmp ne ptr %72, null
  br i1 %73, label %74, label %105

74:                                               ; preds = %69
  store i32 0, ptr %8, align 4, !tbaa !20
  br label %75

75:                                               ; preds = %101, %74
  %76 = load i32, ptr %8, align 4, !tbaa !20
  %77 = load ptr, ptr %14, align 8, !tbaa !4
  %78 = getelementptr inbounds nuw %struct.cmsysProcess_s, ptr %77, i32 0, i32 1
  %79 = load volatile i32, ptr %78, align 8, !tbaa !32
  %80 = icmp slt i32 %76, %79
  br i1 %80, label %81, label %104

81:                                               ; preds = %75
  %82 = load ptr, ptr %14, align 8, !tbaa !4
  %83 = getelementptr inbounds nuw %struct.cmsysProcess_s, ptr %82, i32 0, i32 6
  %84 = load volatile ptr, ptr %83, align 8, !tbaa !87
  %85 = load i32, ptr %8, align 4, !tbaa !20
  %86 = sext i32 %85 to i64
  %87 = getelementptr inbounds i32, ptr %84, i64 %86
  %88 = load volatile i32, ptr %87, align 4, !tbaa !20
  %89 = icmp ne i32 %88, 0
  br i1 %89, label %90, label %100

90:                                               ; preds = %81
  %91 = load ptr, ptr %14, align 8, !tbaa !4
  %92 = getelementptr inbounds nuw %struct.cmsysProcess_s, ptr %91, i32 0, i32 6
  %93 = load volatile ptr, ptr %92, align 8, !tbaa !87
  %94 = load i32, ptr %8, align 4, !tbaa !20
  %95 = sext i32 %94 to i64
  %96 = getelementptr inbounds i32, ptr %93, i64 %95
  %97 = load volatile i32, ptr %96, align 4, !tbaa !20
  %98 = sub nsw i32 0, %97
  %99 = call i32 @kill(i32 noundef %98, i32 noundef 2) #11
  br label %100

100:                                              ; preds = %90, %81
  br label %101

101:                                              ; preds = %100
  %102 = load i32, ptr %8, align 4, !tbaa !20
  %103 = add nsw i32 %102, 1
  store i32 %103, ptr %8, align 4, !tbaa !20
  br label %75, !llvm.loop !165

104:                                              ; preds = %75
  br label %105

105:                                              ; preds = %104, %69, %64, %59, %49
  call void @llvm.lifetime.end.p0(i64 8, ptr %14) #11
  br label %106

106:                                              ; preds = %105
  %107 = load i32, ptr %7, align 4, !tbaa !20
  %108 = add nsw i32 %107, 1
  store i32 %108, ptr %7, align 4, !tbaa !20
  br label %45, !llvm.loop !166

109:                                              ; preds = %45
  br label %110

110:                                              ; preds = %119, %109
  %111 = call i32 @wait(ptr noundef %9)
  %112 = icmp sge i32 %111, 0
  br i1 %112, label %117, label %113

113:                                              ; preds = %110
  %114 = call ptr @__errno_location() #14
  %115 = load i32, ptr %114, align 4, !tbaa !20
  %116 = icmp ne i32 %115, 10
  br label %117

117:                                              ; preds = %113, %110
  %118 = phi i1 [ true, %110 ], [ %116, %113 ]
  br i1 %118, label %119, label %120

119:                                              ; preds = %117
  br label %110, !llvm.loop !167

120:                                              ; preds = %117
  call void @llvm.lifetime.start.p0(i64 152, ptr %15) #11
  call void @llvm.lifetime.start.p0(i64 128, ptr %16) #11
  call void @llvm.memset.p0.i64(ptr align 8 %15, i8 0, i64 152, i1 false)
  %121 = getelementptr inbounds nuw %struct.sigaction, ptr %15, i32 0, i32 0
  store ptr null, ptr %121, align 8, !tbaa !86
  %122 = getelementptr inbounds nuw %struct.sigaction, ptr %15, i32 0, i32 1
  %123 = call i32 @sigemptyset(ptr noundef %122) #11
  br label %124

124:                                              ; preds = %134, %120
  %125 = load i32, ptr %4, align 4, !tbaa !20
  %126 = call i32 @sigaction(i32 noundef %125, ptr noundef %15, ptr noundef null) #11
  %127 = icmp slt i32 %126, 0
  br i1 %127, label %128, label %132

128:                                              ; preds = %124
  %129 = call ptr @__errno_location() #14
  %130 = load i32, ptr %129, align 4, !tbaa !20
  %131 = icmp eq i32 %130, 4
  br label %132

132:                                              ; preds = %128, %124
  %133 = phi i1 [ false, %124 ], [ %131, %128 ]
  br i1 %133, label %134, label %135

134:                                              ; preds = %132
  br label %124, !llvm.loop !168

135:                                              ; preds = %132
  %136 = call i32 @sigemptyset(ptr noundef %16) #11
  %137 = load i32, ptr %4, align 4, !tbaa !20
  %138 = call i32 @sigaddset(ptr noundef %16, i32 noundef %137) #11
  %139 = call i32 @sigprocmask(i32 noundef 1, ptr noundef %16, ptr noundef null) #11
  %140 = load i32, ptr %4, align 4, !tbaa !20
  %141 = call i32 @raise(i32 noundef %140) #11
  call void @_exit(i32 noundef 1) #15
  unreachable

142:                                              ; preds = %3, %43
  %143 = load i32, ptr %10, align 4, !tbaa !20
  %144 = call ptr @__errno_location() #14
  store i32 %143, ptr %144, align 4, !tbaa !20
  call void @llvm.lifetime.end.p0(i64 4, ptr %10) #11
  call void @llvm.lifetime.end.p0(i64 4, ptr %9) #11
  call void @llvm.lifetime.end.p0(i64 4, ptr %8) #11
  call void @llvm.lifetime.end.p0(i64 4, ptr %7) #11
  ret void
}