; Function Attrs: nounwind uwtable
define internal void @kwsysProcessesSignalHandler(i32 noundef %0, ptr readnone captures(none) %1, ptr readnone captures(none) %2) #4 {
  %4 = alloca i32, align 4
  %5 = alloca i8, align 1
  %6 = alloca %struct.sigaction, align 8
  %7 = alloca %struct.__sigset_t, align 8
  call void @llvm.lifetime.start.p0(i64 4, ptr nonnull %4) #25
  %8 = tail call ptr @__errno_location() #28
  %9 = load i32, ptr %8, align 4, !tbaa !35
  switch i32 %0, label %.loopexit [
    i32 17, label %.preheader
    i32 2, label %24
    i32 15, label %24
  ]

.preheader:                                       ; preds = %3
  %10 = load i32, ptr @kwsysProcesses.0, align 8, !tbaa !128
  %11 = icmp sgt i32 %10, 0
  br i1 %11, label %.lr.ph38, label %.loopexit

.lr.ph38:                                         ; preds = %.preheader, %.lr.ph38
  %indvars.iv43 = phi i64 [ %indvars.iv.next44, %.lr.ph38 ], [ 0, %.preheader ]
  call void @llvm.lifetime.start.p0(i64 1, ptr nonnull %5) #25
  store i8 1, ptr %5, align 1, !tbaa !54
  %12 = load ptr, ptr @kwsysProcesses.2, align 8, !tbaa !130
  %13 = getelementptr inbounds nuw ptr, ptr %12, i64 %indvars.iv43
  %14 = load ptr, ptr %13, align 8, !tbaa !64
  %15 = getelementptr inbounds nuw i8, ptr %14, i64 20
  %16 = load i32, ptr %15, align 4, !tbaa !35
  %17 = call i64 @read(i32 noundef %16, ptr noundef nonnull %5, i64 noundef 1) #25
  %18 = getelementptr inbounds nuw i8, ptr %14, i64 36
  %19 = load i32, ptr %18, align 4, !tbaa !61
  %20 = call i64 @write(i32 noundef %19, ptr noundef nonnull %5, i64 noundef 1) #25
  call void @llvm.lifetime.end.p0(i64 1, ptr nonnull %5) #25
  %indvars.iv.next44 = add nuw nsw i64 %indvars.iv43, 1
  %21 = load i32, ptr @kwsysProcesses.0, align 8, !tbaa !128
  %22 = sext i32 %21 to i64
  %23 = icmp slt i64 %indvars.iv.next44, %22
  br i1 %23, label %.lr.ph38, label %.loopexit, !llvm.loop !131

24:                                               ; preds = %3, %3
  %25 = load i32, ptr @kwsysProcesses.0, align 8, !tbaa !128
  %26 = icmp sgt i32 %25, 0
  br i1 %26, label %.lr.ph36, label %.preheader31.preheader

.lr.ph36:                                         ; preds = %24, %.loopexit33
  %27 = phi i32 [ %58, %.loopexit33 ], [ %25, %24 ]
  %indvars.iv40 = phi i64 [ %indvars.iv.next41, %.loopexit33 ], [ 0, %24 ]
  %28 = load ptr, ptr @kwsysProcesses.2, align 8, !tbaa !130
  %29 = getelementptr inbounds nuw ptr, ptr %28, i64 %indvars.iv40
  %30 = load ptr, ptr %29, align 8, !tbaa !64
  %31 = getelementptr inbounds nuw i8, ptr %30, i64 1112
  %32 = load volatile i32, ptr %31, align 8, !tbaa !53
  %.not26 = icmp eq i32 %32, 0
  br i1 %.not26, label %.loopexit33, label %33

33:                                               ; preds = %.lr.ph36
  %34 = getelementptr inbounds nuw i8, ptr %30, i64 1296
  %35 = load volatile i32, ptr %34, align 8, !tbaa !21
  %.not27 = icmp eq i32 %35, 0
  br i1 %.not27, label %36, label %.loopexit33

36:                                               ; preds = %33
  %37 = getelementptr inbounds nuw i8, ptr %30, i64 1292
  %38 = load volatile i32, ptr %37, align 4, !tbaa !18
  %.not28 = icmp eq i32 %38, 1
  br i1 %.not28, label %.loopexit33, label %39

39:                                               ; preds = %36
  %40 = getelementptr inbounds nuw i8, ptr %30, i64 1064
  %41 = load volatile ptr, ptr %40, align 8, !tbaa !55
  %.not29 = icmp eq ptr %41, null
  br i1 %.not29, label %.loopexit33, label %.preheader32

.preheader32:                                     ; preds = %39
  %42 = getelementptr inbounds nuw i8, ptr %30, i64 8
  %43 = load volatile i32, ptr %42, align 8, !tbaa !22
  %44 = icmp sgt i32 %43, 0
  br i1 %44, label %.lr.ph, label %.loopexit33

.lr.ph:                                           ; preds = %.preheader32, %54
  %indvars.iv = phi i64 [ %indvars.iv.next, %54 ], [ 0, %.preheader32 ]
  %45 = load volatile ptr, ptr %40, align 8, !tbaa !55
  %46 = getelementptr inbounds nuw i32, ptr %45, i64 %indvars.iv
  %47 = load volatile i32, ptr %46, align 4, !tbaa !35
  %.not30 = icmp eq i32 %47, 0
  br i1 %.not30, label %54, label %48

48:                                               ; preds = %.lr.ph
  %49 = load volatile ptr, ptr %40, align 8, !tbaa !55
  %50 = getelementptr inbounds nuw i32, ptr %49, i64 %indvars.iv
  %51 = load volatile i32, ptr %50, align 4, !tbaa !35
  %52 = sub nsw i32 0, %51
  %53 = tail call i32 @kill(i32 noundef %52, i32 noundef 2) #25
  br label %54

54:                                               ; preds = %.lr.ph, %48
  %indvars.iv.next = add nuw nsw i64 %indvars.iv, 1
  %55 = load volatile i32, ptr %42, align 8, !tbaa !22
  %56 = sext i32 %55 to i64
  %57 = icmp slt i64 %indvars.iv.next, %56
  br i1 %57, label %.lr.ph, label %.loopexit33.loopexit, !llvm.loop !132

.loopexit33.loopexit:                             ; preds = %54
  %.pre = load i32, ptr @kwsysProcesses.0, align 8, !tbaa !128
  br label %.loopexit33

.loopexit33:                                      ; preds = %.loopexit33.loopexit, %.preheader32, %39, %36, %33, %.lr.ph36
  %58 = phi i32 [ %.pre, %.loopexit33.loopexit ], [ %27, %.preheader32 ], [ %27, %39 ], [ %27, %36 ], [ %27, %33 ], [ %27, %.lr.ph36 ]
  %indvars.iv.next41 = add nuw nsw i64 %indvars.iv40, 1
  %59 = sext i32 %58 to i64
  %60 = icmp slt i64 %indvars.iv.next41, %59
  br i1 %60, label %.lr.ph36, label %.preheader31.preheader, !llvm.loop !133

.preheader31.preheader:                           ; preds = %.loopexit33, %24
  br label %.preheader31

.preheader31:                                     ; preds = %.preheader31.backedge, %.preheader31.preheader
  %61 = call i32 @wait(ptr noundef nonnull %4) #25
  %62 = icmp sgt i32 %61, -1
  br i1 %62, label %.preheader31.backedge, label %63

.preheader31.backedge:                            ; preds = %.preheader31, %63
  br label %.preheader31, !llvm.loop !134

63:                                               ; preds = %.preheader31
  %64 = load i32, ptr %8, align 4, !tbaa !35
  %.not = icmp eq i32 %64, 10
  br i1 %.not, label %65, label %.preheader31.backedge

65:                                               ; preds = %63
  call void @llvm.lifetime.start.p0(i64 152, ptr nonnull %6) #25
  call void @llvm.lifetime.start.p0(i64 128, ptr nonnull %7) #25
  %66 = getelementptr inbounds nuw i8, ptr %6, i64 8
  call void @llvm.memset.p0.i64(ptr noundef nonnull align 8 dereferenceable(152) %6, i8 0, i64 152, i1 false)
  %67 = call i32 @sigemptyset(ptr noundef nonnull %66) #25
  br label %68

68:                                               ; preds = %71, %65
  %69 = call i32 @sigaction(i32 noundef %0, ptr noundef nonnull %6, ptr noundef null) #25
  %70 = icmp slt i32 %69, 0
  br i1 %70, label %71, label %.critedge2

71:                                               ; preds = %68
  %72 = load i32, ptr %8, align 4, !tbaa !35
  %73 = icmp eq i32 %72, 4
  br i1 %73, label %68, label %.critedge2, !llvm.loop !135

.critedge2:                                       ; preds = %68, %71
  %74 = call i32 @sigemptyset(ptr noundef nonnull %7) #25
  %75 = call i32 @sigaddset(ptr noundef nonnull %7, i32 noundef %0) #25
  %76 = call i32 @sigprocmask(i32 noundef 1, ptr noundef nonnull %7, ptr noundef null) #25
  %77 = call i32 @raise(i32 noundef %0) #25
  call void @_exit(i32 noundef 1) #29
  unreachable

.loopexit:                                        ; preds = %.lr.ph38, %.preheader, %3
  store i32 %9, ptr %8, align 4, !tbaa !35
  call void @llvm.lifetime.end.p0(i64 4, ptr nonnull %4) #25
  ret void
}